target datalayout = "e-m:e-p270:32:32-p271:32:32-p272:64:64-i64:64-i128:128-f80:128-n8:16:32:64-S128"
target triple = "x86_64-pc-linux-gnu"

%struct.ossl_encoder_ctx_st = type { i32, ptr, ptr, ptr, ptr, ptr, ptr, %struct.ossl_passphrase_data_st }
%struct.ossl_passphrase_data_st = type { i32, %union.anon, i8, ptr, i64 }
%union.anon = type { %struct.anon }
%struct.anon = type { ptr, i64 }

@.str = private unnamed_addr constant [46 x i8] c"../openssl/crypto/encode_decode/encoder_lib.c\00", align 1
@__func__.OSSL_ENCODER_CTX_set_output_type = private unnamed_addr constant [33 x i8] c"OSSL_ENCODER_CTX_set_output_type\00", align 1

; Function Attrs: nounwind uwtable
define i32 @OSSL_ENCODER_CTX_set_output_type(ptr noundef %0, ptr noundef %1) #0 {
  %3 = alloca i32, align 4
  %4 = alloca ptr, align 8
  %5 = alloca ptr, align 8
  store ptr %0, ptr %4, align 8, !tbaa !3
  store ptr %1, ptr %5, align 8, !tbaa !36
  %6 = load ptr, ptr %4, align 8, !tbaa !3
  %7 = icmp ne ptr %6, null
  %8 = zext i1 %7 to i32
  %9 = icmp ne i32 %8, 0
  %10 = xor i1 %9, true
  %11 = xor i1 %10, true
  %12 = zext i1 %11 to i32
  %13 = sext i32 %12 to i64
  %14 = call i64 @llvm.expect.i64(i64 %13, i64 1)
  %15 = icmp ne i64 %14, 0
  br i1 %15, label %16, label %27

16:                                               ; preds = %2
  %17 = load ptr, ptr %5, align 8, !tbaa !36
  %18 = icmp ne ptr %17, null
  %19 = zext i1 %18 to i32
  %20 = icmp ne i32 %19, 0
  %21 = xor i1 %20, true
  %22 = xor i1 %21, true
  %23 = zext i1 %22 to i32
  %24 = sext i32 %23 to i64
  %25 = call i64 @llvm.expect.i64(i64 %24, i64 1)
  %26 = icmp ne i64 %25, 0
  br i1 %26, label %28, label %27

27:                                               ; preds = %16, %2
  call void @ERR_new()
  call void @ERR_set_debug(ptr noundef @.str, i32 noundef 190, ptr noundef @__func__.OSSL_ENCODER_CTX_set_output_type)
  call void (i32, i32, ptr, ...) @ERR_set_error(i32 noundef 59, i32 noundef 786690, ptr noundef null)
  store i32 0, ptr %3, align 4
  br label %32

28:                                               ; preds = %16
  %29 = load ptr, ptr %5, align 8, !tbaa !36
  %30 = load ptr, ptr %4, align 8, !tbaa !3
  %31 = getelementptr inbounds nuw %struct.ossl_encoder_ctx_st, ptr %30, i32 0, i32 1
  store ptr %29, ptr %31, align 8, !tbaa !38
  store i32 1, ptr %3, align 4
  br label %32

32:                                               ; preds = %28, %27
  %33 = load i32, ptr %3, align 4
  ret i32 %33
}